target datalayout = "e-m:e-p270:32:32-p271:32:32-p272:64:64-i64:64-i128:128-f80:128-n8:16:32:64-S128"
target triple = "x86_64-pc-linux-gnu"

@.str.12 = private unnamed_addr constant [7 x i8] c"_CLIBS\00", align 1

; Function Attrs: nounwind uwtable
define internal ptr @lsys_sym(ptr noundef %0, ptr noundef %1, ptr noundef %2) #0 {
  %4 = alloca ptr, align 8
  %5 = alloca ptr, align 8
  %6 = alloca ptr, align 8
  %7 = alloca ptr, align 8
  store ptr %0, ptr %4, align 8, !tbaa !4
  store ptr %1, ptr %5, align 8, !tbaa !11
  store ptr %2, ptr %6, align 8, !tbaa !12
  call void @llvm.lifetime.start.p0(i64 8, ptr %7) #6
  %8 = load ptr, ptr %5, align 8, !tbaa !11
  %9 = load ptr, ptr %6, align 8, !tbaa !12
  %10 = call ptr @dlsym(ptr noundef %8, ptr noundef %9) #6
  store ptr %10, ptr %7, align 8, !tbaa !11
  %11 = load ptr, ptr %7, align 8, !tbaa !11
  %12 = icmp eq ptr %11, null
  %13 = zext i1 %12 to i32
  %14 = icmp ne i32 %13, 0
  %15 = zext i1 %14 to i32
  %16 = sext i32 %15 to i64
  %17 = call i64 @llvm.expect.i64(i64 %16, i64 0)
  %18 = icmp ne i64 %17, 0
  br i1 %18, label %19, label %23

19:                                               ; preds = %3
  %20 = load ptr, ptr %4, align 8, !tbaa !4
  %21 = call ptr @dlerror() #6
  %22 = call ptr @lua_pushstring(ptr noundef %20, ptr noundef %21)
  br label %23

23:                                               ; preds = %19, %3
  %24 = load ptr, ptr %7, align 8, !tbaa !11
  call void @llvm.lifetime.end.p0(i64 8, ptr %7) #6
  ret ptr %24
}

; Function Attrs: nounwind uwtable
define internal void @addtoclib(ptr noundef %0, ptr noundef %1, ptr noundef %2) #0 {
  %4 = alloca ptr, align 8
  %5 = alloca ptr, align 8
  %6 = alloca ptr, align 8
  store ptr %0, ptr %4, align 8, !tbaa !4
  store ptr %1, ptr %5, align 8, !tbaa !12
  store ptr %2, ptr %6, align 8, !tbaa !11
  %7 = load ptr, ptr %4, align 8, !tbaa !4
  %8 = call i32 @lua_getfield(ptr noundef %7, i32 noundef -1001000, ptr noundef @.str.12)
  %9 = load ptr, ptr %4, align 8, !tbaa !4
  %10 = load ptr, ptr %6, align 8, !tbaa !11
  call void @lua_pushlightuserdata(ptr noundef %9, ptr noundef %10)
  %11 = load ptr, ptr %4, align 8, !tbaa !4
  call void @lua_pushvalue(ptr noundef %11, i32 noundef -1)
  %12 = load ptr, ptr %4, align 8, !tbaa !4
  %13 = load ptr, ptr %5, align 8, !tbaa !12
  call void @lua_setfield(ptr noundef %12, i32 noundef -3, ptr noundef %13)
  %14 = load ptr, ptr %4, align 8, !tbaa !4
  %15 = load ptr, ptr %4, align 8, !tbaa !4
  %16 = call i64 @luaL_len(ptr noundef %15, i32 noundef -2)
  %17 = add nsw i64 %16, 1
  call void @lua_rawseti(ptr noundef %14, i32 noundef -2, i64 noundef %17)
  %18 = load ptr, ptr %4, align 8, !tbaa !4
  call void @lua_settop(ptr noundef %18, i32 noundef -2)
  ret void
}

; Function Attrs: nounwind uwtable
define internal ptr @lsys_load(ptr noundef %0, ptr noundef %1, i32 noundef %2) #0 {
  %4 = alloca ptr, align 8
  %5 = alloca ptr, align 8
  %6 = alloca i32, align 4
  %7 = alloca ptr, align 8
  store ptr %0, ptr %4, align 8, !tbaa !4
  store ptr %1, ptr %5, align 8, !tbaa !12
  store i32 %2, ptr %6, align 4, !tbaa !9
  call void @llvm.lifetime.start.p0(i64 8, ptr %7) #6
  %8 = load ptr, ptr %5, align 8, !tbaa !12
  %9 = load i32, ptr %6, align 4, !tbaa !9
  %10 = icmp ne i32 %9, 0
  %11 = select i1 %10, i32 256, i32 0
  %12 = or i32 2, %11
  %13 = call ptr @dlopen(ptr noundef %8, i32 noundef %12) #6
  store ptr %13, ptr %7, align 8, !tbaa !11
  %14 = load ptr, ptr %7, align 8, !tbaa !11
  %15 = icmp eq ptr %14, null
  %16 = zext i1 %15 to i32
  %17 = icmp ne i32 %16, 0
  %18 = zext i1 %17 to i32
  %19 = sext i32 %18 to i64
  %20 = call i64 @llvm.expect.i64(i64 %19, i64 0)
  %21 = icmp ne i64 %20, 0
  br i1 %21, label %22, label %26

22:                                               ; preds = %3
  %23 = load ptr, ptr %4, align 8, !tbaa !4
  %24 = call ptr @dlerror() #6
  %25 = call ptr @lua_pushstring(ptr noundef %23, ptr noundef %24)
  br label %26

26:                                               ; preds = %22, %3
  %27 = load ptr, ptr %7, align 8, !tbaa !11
  call void @llvm.lifetime.end.p0(i64 8, ptr %7) #6
  ret ptr %27
}

; Function Attrs: nounwind uwtable
define internal ptr @checkclib(ptr noundef %0, ptr noundef %1) #0 {
  %3 = alloca ptr, align 8
  %4 = alloca ptr, align 8
  %5 = alloca ptr, align 8
  store ptr %0, ptr %3, align 8, !tbaa !4
  store ptr %1, ptr %4, align 8, !tbaa !12
  call void @llvm.lifetime.start.p0(i64 8, ptr %5) #6
  %6 = load ptr, ptr %3, align 8, !tbaa !4
  %7 = call i32 @lua_getfield(ptr noundef %6, i32 noundef -1001000, ptr noundef @.str.12)
  %8 = load ptr, ptr %3, align 8, !tbaa !4
  %9 = load ptr, ptr %4, align 8, !tbaa !12
  %10 = call i32 @lua_getfield(ptr noundef %8, i32 noundef -1, ptr noundef %9)
  %11 = load ptr, ptr %3, align 8, !tbaa !4
  %12 = call ptr @lua_touserdata(ptr noundef %11, i32 noundef -1)
  store ptr %12, ptr %5, align 8, !tbaa !11
  %13 = load ptr, ptr %3, align 8, !tbaa !4
  call void @lua_settop(ptr noundef %13, i32 noundef -3)
  %14 = load ptr, ptr %5, align 8, !tbaa !11
  call void @llvm.lifetime.end.p0(i64 8, ptr %5) #6
  ret ptr %14
}

; Function Attrs: nounwind uwtable
define internal i32 @lookforfunc(ptr noundef %0, ptr noundef %1, ptr noundef %2) #0 {
  %4 = alloca i32, align 4
  %5 = alloca ptr, align 8
  %6 = alloca ptr, align 8
  %7 = alloca ptr, align 8
  %8 = alloca ptr, align 8
  %9 = alloca i32, align 4
  %10 = alloca ptr, align 8
  store ptr %0, ptr %5, align 8, !tbaa !4
  store ptr %1, ptr %6, align 8, !tbaa !12
  store ptr %2, ptr %7, align 8, !tbaa !12
  call void @llvm.lifetime.start.p0(i64 8, ptr %8) #6
  %11 = load ptr, ptr %5, align 8, !tbaa !4
  %12 = load ptr, ptr %6, align 8, !tbaa !12
  %13 = call ptr @checkclib(ptr noundef %11, ptr noundef %12)
  store ptr %13, ptr %8, align 8, !tbaa !11
  %14 = load ptr, ptr %8, align 8, !tbaa !11
  %15 = icmp eq ptr %14, null
  br i1 %15, label %16, label %32

16:                                               ; preds = %3
  %17 = load ptr, ptr %5, align 8, !tbaa !4
  %18 = load ptr, ptr %6, align 8, !tbaa !12
  %19 = load ptr, ptr %7, align 8, !tbaa !12
  %20 = load i8, ptr %19, align 1, !tbaa !19
  %21 = sext i8 %20 to i32
  %22 = icmp eq i32 %21, 42
  %23 = zext i1 %22 to i32
  %24 = call ptr @lsys_load(ptr noundef %17, ptr noundef %18, i32 noundef %23)
  store ptr %24, ptr %8, align 8, !tbaa !11
  %25 = load ptr, ptr %8, align 8, !tbaa !11
  %26 = icmp eq ptr %25, null
  br i1 %26, label %27, label %28

27:                                               ; preds = %16
  store i32 1, ptr %4, align 4
  store i32 1, ptr %9, align 4
  br label %51

28:                                               ; preds = %16
  %29 = load ptr, ptr %5, align 8, !tbaa !4
  %30 = load ptr, ptr %6, align 8, !tbaa !12
  %31 = load ptr, ptr %8, align 8, !tbaa !11
  call void @addtoclib(ptr noundef %29, ptr noundef %30, ptr noundef %31)
  br label %32

32:                                               ; preds = %28, %3
  %33 = load ptr, ptr %7, align 8, !tbaa !12
  %34 = load i8, ptr %33, align 1, !tbaa !19
  %35 = sext i8 %34 to i32
  %36 = icmp eq i32 %35, 42
  br i1 %36, label %37, label %39

37:                                               ; preds = %32
  %38 = load ptr, ptr %5, align 8, !tbaa !4
  call void @lua_pushboolean(ptr noundef %38, i32 noundef 1)
  store i32 0, ptr %4, align 4
  store i32 1, ptr %9, align 4
  br label %51

39:                                               ; preds = %32
  call void @llvm.lifetime.start.p0(i64 8, ptr %10) #6
  %40 = load ptr, ptr %5, align 8, !tbaa !4
  %41 = load ptr, ptr %8, align 8, !tbaa !11
  %42 = load ptr, ptr %7, align 8, !tbaa !12
  %43 = call ptr @lsys_sym(ptr noundef %40, ptr noundef %41, ptr noundef %42)
  store ptr %43, ptr %10, align 8, !tbaa !11
  %44 = load ptr, ptr %10, align 8, !tbaa !11
  %45 = icmp eq ptr %44, null
  br i1 %45, label %46, label %47

46:                                               ; preds = %39
  store i32 2, ptr %4, align 4
  store i32 1, ptr %9, align 4
  br label %50

47:                                               ; preds = %39
  %48 = load ptr, ptr %5, align 8, !tbaa !4
  %49 = load ptr, ptr %10, align 8, !tbaa !11
  call void @lua_pushcclosure(ptr noundef %48, ptr noundef %49, i32 noundef 0)
  store i32 0, ptr %4, align 4
  store i32 1, ptr %9, align 4
  br label %50

50:                                               ; preds = %47, %46
  call void @llvm.lifetime.end.p0(i64 8, ptr %10) #6
  br label %51

51:                                               ; preds = %50, %37, %27
  call void @llvm.lifetime.end.p0(i64 8, ptr %8) #6
  %52 = load i32, ptr %4, align 4
  ret i32 %52
}