; Function Attrs: nounwind uwtable
define internal fastcc range(i32 0, 3) i32 @lookforfunc(ptr noundef %0, ptr noundef %1, ptr noundef %2) unnamed_addr #0 {
  %4 = tail call i32 @lua_getfield(ptr noundef %0, i32 noundef -1001000, ptr noundef nonnull @.str.12) #7
  %5 = tail call i32 @lua_getfield(ptr noundef %0, i32 noundef -1, ptr noundef %1) #7
  %6 = tail call ptr @lua_touserdata(ptr noundef %0, i32 noundef -1) #7
  tail call void @lua_settop(ptr noundef %0, i32 noundef -3) #7
  %7 = icmp eq ptr %6, null
  br i1 %7, label %8, label %18

8:                                                ; preds = %3
  %9 = load i8, ptr %2, align 1, !tbaa !15
  %.not = icmp eq i8 %9, 42
  %10 = select i1 %.not, i32 258, i32 2
  %11 = tail call ptr @dlopen(ptr noundef %1, i32 noundef %10) #7
  %12 = icmp eq ptr %11, null
  br i1 %12, label %lsys_load.exit.thread, label %lsys_load.exit, !prof !17

lsys_load.exit.thread:                            ; preds = %8
  %13 = tail call ptr @dlerror() #7
  %14 = tail call ptr @lua_pushstring(ptr noundef %0, ptr noundef %13) #7
  br label %27

lsys_load.exit:                                   ; preds = %8
  %15 = tail call i32 @lua_getfield(ptr noundef %0, i32 noundef -1001000, ptr noundef nonnull @.str.12) #7
  tail call void @lua_pushlightuserdata(ptr noundef %0, ptr noundef nonnull %11) #7
  tail call void @lua_pushvalue(ptr noundef %0, i32 noundef -1) #7
  tail call void @lua_setfield(ptr noundef %0, i32 noundef -3, ptr noundef %1) #7
  %16 = tail call i64 @luaL_len(ptr noundef %0, i32 noundef -2) #7
  %17 = add nsw i64 %16, 1
  tail call void @lua_rawseti(ptr noundef %0, i32 noundef -2, i64 noundef %17) #7
  tail call void @lua_settop(ptr noundef %0, i32 noundef -2) #7
  br label %18

18:                                               ; preds = %lsys_load.exit, %3
  %.018 = phi ptr [ %11, %lsys_load.exit ], [ %6, %3 ]
  %19 = load i8, ptr %2, align 1, !tbaa !15
  %20 = icmp eq i8 %19, 42
  br i1 %20, label %21, label %22

21:                                               ; preds = %18
  tail call void @lua_pushboolean(ptr noundef %0, i32 noundef 1) #7
  br label %27

22:                                               ; preds = %18
  %23 = tail call ptr @dlsym(ptr noundef nonnull %.018, ptr noundef nonnull %2) #7
  %24 = icmp eq ptr %23, null
  br i1 %24, label %lsys_sym.exit.thread, label %lsys_sym.exit, !prof !17

lsys_sym.exit.thread:                             ; preds = %22
  %25 = tail call ptr @dlerror() #7
  %26 = tail call ptr @lua_pushstring(ptr noundef %0, ptr noundef %25) #7
  br label %27

lsys_sym.exit:                                    ; preds = %22
  tail call void @lua_pushcclosure(ptr noundef %0, ptr noundef nonnull %23, i32 noundef 0) #7
  br label %27

27:                                               ; preds = %lsys_sym.exit.thread, %lsys_load.exit.thread, %lsys_sym.exit, %21
  %.0 = phi i32 [ 0, %21 ], [ 0, %lsys_sym.exit ], [ 1, %lsys_load.exit.thread ], [ 2, %lsys_sym.exit.thread ]
  ret i32 %.0
}